target datalayout = "e-m:e-p270:32:32-p271:32:32-p272:64:64-i64:64-i128:128-f80:128-n8:16:32:64-S128"
target triple = "x86_64-pc-linux-gnu"

%struct.recent_settings_tag = type { i8, i8, i8, i8, i8, i8, i8, i8, i8, i8, i32, i32, i32, i32, i32, i32, i8, i8, i32, i32, i8, i8, i8, i32, i32, i32, i32, i32, i32, i32, i32, i32, i8, i8, i32, i32, ptr, ptr, ptr, i8, i8, ptr, ptr, ptr, ptr, ptr, i32, ptr, i8, ptr, ptr, ptr }

@recent = external global %struct.recent_settings_tag, align 8

; Function Attrs: mustprogress nounwind null_pointer_is_valid sspstrong uwtable
define noundef zeroext i1 @_ZN21ShowPacketBytesDialog18enableShowSelectedEv(ptr noundef align 8 dereferenceable_or_null(296) %0) #7 align 2 {
  %2 = alloca ptr, align 8
  store ptr %0, ptr %2, align 8
  %3 = load i32, ptr getelementptr inbounds nuw (%struct.recent_settings_tag, ptr @recent, i32 0, i32 26), align 8
  %4 = icmp eq i32 %3, 0
  br i1 %4, label %8, label %5

5:                                                ; preds = %1
  %6 = load i32, ptr getelementptr inbounds nuw (%struct.recent_settings_tag, ptr @recent, i32 0, i32 26), align 8
  %7 = icmp eq i32 %6, 6
  br i1 %7, label %8, label %22

8:                                                ; preds = %5, %1
  %9 = load i32, ptr getelementptr inbounds nuw (%struct.recent_settings_tag, ptr @recent, i32 0, i32 27), align 4
  %10 = icmp eq i32 %9, 0
  br i1 %10, label %20, label %11

11:                                               ; preds = %8
  %12 = load i32, ptr getelementptr inbounds nuw (%struct.recent_settings_tag, ptr @recent, i32 0, i32 27), align 4
  %13 = icmp eq i32 %12, 1
  br i1 %13, label %20, label %14

14:                                               ; preds = %11
  %15 = load i32, ptr getelementptr inbounds nuw (%struct.recent_settings_tag, ptr @recent, i32 0, i32 27), align 4
  %16 = icmp eq i32 %15, 3
  br i1 %16, label %20, label %17

17:                                               ; preds = %14
  %18 = load i32, ptr getelementptr inbounds nuw (%struct.recent_settings_tag, ptr @recent, i32 0, i32 27), align 4
  %19 = icmp eq i32 %18, 8
  br label %20

20:                                               ; preds = %17, %14, %11, %8
  %21 = phi i1 [ true, %14 ], [ true, %11 ], [ true, %8 ], [ %19, %17 ]
  br label %22

22:                                               ; preds = %20, %5
  %23 = phi i1 [ false, %5 ], [ %21, %20 ]
  ret i1 %23
}