; Function Attrs: mustprogress nofree norecurse nosync nounwind null_pointer_is_valid sspstrong willreturn memory(read, argmem: none, inaccessiblemem: none) uwtable
define noundef zeroext i1 @_ZN21ShowPacketBytesDialog18enableShowSelectedEv(ptr noundef readnone align 8 captures(none) dereferenceable_or_null(296) %0) local_unnamed_addr #9 align 2 {
  %2 = load i32, ptr getelementptr inbounds nuw (i8, ptr @recent, i64 64), align 8
  switch i32 %2, label %switch.edge [
    i32 6, label %3
    i32 0, label %3
  ]

3:                                                ; preds = %1, %1
  %4 = load i32, ptr getelementptr inbounds nuw (i8, ptr @recent, i64 68), align 4
  %5 = icmp ult i32 %4, 9
  br i1 %5, label %switch.lookup, label %switch.edge

switch.lookup:                                    ; preds = %3
  %switch.cast = trunc nuw i32 %4 to i9
  %switch.downshift = lshr i9 -245, %switch.cast
  %switch.masked = trunc i9 %switch.downshift to i1
  br label %switch.edge

switch.edge:                                      ; preds = %3, %switch.lookup, %1
  %6 = phi i1 [ false, %1 ], [ %switch.masked, %switch.lookup ], [ false, %3 ]
  ret i1 %6
}